target datalayout = "e-m:e-p270:32:32-p271:32:32-p272:64:64-i64:64-i128:128-f80:128-n8:16:32:64-S128"
target triple = "x86_64-pc-linux-gnu"

; Function Attrs: nounwind uwtable
define hidden i64 @lj_carith_divi64(i64 noundef %0, i64 noundef %1) #0 {
  %3 = alloca i64, align 8
  %4 = alloca i64, align 8
  %5 = alloca i64, align 8
  store i64 %0, ptr %4, align 8, !tbaa !58
  store i64 %1, ptr %5, align 8, !tbaa !58
  %6 = load i64, ptr %5, align 8, !tbaa !58
  %7 = icmp eq i64 %6, 0
  br i1 %7, label %14, label %8

8:                                                ; preds = %2
  %9 = load i64, ptr %4, align 8, !tbaa !58
  %10 = icmp eq i64 %9, -9223372036854775808
  br i1 %10, label %11, label %15

11:                                               ; preds = %8
  %12 = load i64, ptr %5, align 8, !tbaa !58
  %13 = icmp eq i64 %12, -1
  br i1 %13, label %14, label %15

14:                                               ; preds = %11, %2
  store i64 -9223372036854775808, ptr %3, align 8
  br label %19

15:                                               ; preds = %11, %8
  %16 = load i64, ptr %4, align 8, !tbaa !58
  %17 = load i64, ptr %5, align 8, !tbaa !58
  %18 = sdiv i64 %16, %17
  store i64 %18, ptr %3, align 8
  br label %19

19:                                               ; preds = %15, %14
  %20 = load i64, ptr %3, align 8
  ret i64 %20
}