; Function Attrs: mustprogress nofree norecurse nosync nounwind willreturn memory(none) uwtable
define hidden noundef i64 @lj_carith_divi64(i64 noundef %0, i64 noundef %1) local_unnamed_addr #2 {
  %3 = icmp eq i64 %1, 0
  br i1 %3, label %9, label %4

4:                                                ; preds = %2
  %5 = icmp eq i64 %0, -9223372036854775808
  %6 = icmp eq i64 %1, -1
  %or.cond = and i1 %5, %6
  br i1 %or.cond, label %9, label %7

7:                                                ; preds = %4
  %8 = sdiv i64 %0, %1
  br label %9

9:                                                ; preds = %2, %4, %7
  %.0 = phi i64 [ %8, %7 ], [ -9223372036854775808, %4 ], [ -9223372036854775808, %2 ]
  ret i64 %.0
}